; Function Attrs: nounwind uwtable
define double @lean_get_profiler_threshold(ptr noundef %0) local_unnamed_addr #0 {
  %2 = load ptr, ptr @l_Lean_profiler_threshold_getSecs___closed__1, align 8, !tbaa !4
  %3 = tail call ptr @l_Lean_Option_get___at_Lean_profiler_threshold_getSecs___spec__1(ptr noundef %0, ptr noundef %2)
  %4 = ptrtoint ptr %0 to i64
  %5 = and i64 %4, 1
  %.not = icmp eq i64 %5, 0
  br i1 %.not, label %6, label %lean_dec.exit9

6:                                                ; preds = %1
  %7 = load i32, ptr %0, align 4, !tbaa !10
  %8 = icmp sgt i32 %7, 1
  br i1 %8, label %9, label %11, !prof !14

9:                                                ; preds = %6
  %10 = add nsw i32 %7, -1
  store i32 %10, ptr %0, align 4, !tbaa !10
  br label %lean_dec.exit9

11:                                               ; preds = %6
  %.not.i = icmp eq i32 %7, 0
  br i1 %.not.i, label %lean_dec.exit9, label %12

12:                                               ; preds = %11
  tail call void @lean_dec_ref_cold(ptr noundef nonnull %0) #3
  br label %lean_dec.exit9

lean_dec.exit9:                                   ; preds = %12, %11, %9, %1
  %13 = tail call double @l_Float_ofScientific(ptr noundef %3, i8 noundef zeroext 0, ptr noundef nonnull inttoptr (i64 1 to ptr)) #3
  %14 = ptrtoint ptr %3 to i64
  %15 = and i64 %14, 1
  %.not12 = icmp eq i64 %15, 0
  br i1 %.not12, label %16, label %lean_dec.exit

16:                                               ; preds = %lean_dec.exit9
  %17 = load i32, ptr %3, align 4, !tbaa !10
  %18 = icmp sgt i32 %17, 1
  br i1 %18, label %19, label %21, !prof !14

19:                                               ; preds = %16
  %20 = add nsw i32 %17, -1
  store i32 %20, ptr %3, align 4, !tbaa !10
  br label %lean_dec.exit

21:                                               ; preds = %16
  %.not.i10 = icmp eq i32 %17, 0
  br i1 %.not.i10, label %lean_dec.exit, label %22

22:                                               ; preds = %21
  tail call void @lean_dec_ref_cold(ptr noundef nonnull %3) #3
  br label %lean_dec.exit

lean_dec.exit:                                    ; preds = %22, %21, %19, %lean_dec.exit9
  %23 = load double, ptr @l_Lean_profiler_threshold_getSecs___closed__2, align 8, !tbaa !15
  %24 = fdiv double %13, %23
  ret double %24
}